; Function Attrs: nounwind uwtable
define ptr @l_Lean_Meta_ArgsPacker_Unary_pack(ptr noundef %0, ptr noundef %1) local_unnamed_addr #1 {
  %3 = tail call zeroext i8 @l_Array_isEmpty___rarg(ptr noundef %1) #7
  %4 = icmp eq i8 %3, 0
  br i1 %4, label %5, label %7

5:                                                ; preds = %2
  %6 = tail call ptr @l_Lean_Meta_ArgsPacker_Unary_pack_go(ptr noundef %1, ptr noundef nonnull inttoptr (i64 1 to ptr), ptr noundef %0)
  br label %9

7:                                                ; preds = %2
  %8 = load ptr, ptr @l_Lean_Meta_ArgsPacker_Unary_pack___closed__3, align 8, !tbaa !12
  br label %9

9:                                                ; preds = %7, %5
  %.0 = phi ptr [ %6, %5 ], [ %8, %7 ]
  ret ptr %.0
}